; Function Attrs: mustprogress uwtable
define void @_ZN13IlmThread_3_29SemaphoreC2Ej(ptr noundef nonnull align 8 dereferenceable(40) %this, i32 noundef %value) unnamed_addr #0 align 2 personality ptr @__gxx_personality_v0 {
entry:
  %ref.tmp = alloca %"class.std::__cxx11::basic_string", align 8
  %ref.tmp3 = alloca %"class.std::allocator", align 1
  store ptr getelementptr inbounds ({ [4 x ptr] }, ptr @_ZTVN13IlmThread_3_29SemaphoreE, i64 0, i32 0, i64 2), ptr %this, align 8
  %_semaphore2 = getelementptr inbounds i8, ptr %this, i64 8
  %call = tail call i32 @sem_init(ptr noundef nonnull %_semaphore2, i32 noundef 0, i32 noundef %value) #7
  %tobool.not = icmp eq i32 %call, 0
  br i1 %tobool.not, label %if.end, label %if.then

if.then:                                          ; preds = %entry
  call void @_ZNSaIcEC1Ev(ptr noundef nonnull align 1 dereferenceable(1) %ref.tmp3) #7
  %call.i2 = invoke noundef ptr @_ZNSt7__cxx1112basic_stringIcSt11char_traitsIcESaIcEE13_M_local_dataEv(ptr noundef nonnull align 8 dereferenceable(32) %ref.tmp)
          to label %call.i.noexc unwind label %lpad

call.i.noexc:                                     ; preds = %if.then
  invoke void @_ZNSt7__cxx1112basic_stringIcSt11char_traitsIcESaIcEE12_Alloc_hiderC1EPcRKS3_(ptr noundef nonnull align 8 dereferenceable(8) %ref.tmp, ptr noundef %call.i2, ptr noundef nonnull align 1 dereferenceable(1) %ref.tmp3)
          to label %.noexc unwind label %lpad

.noexc:                                           ; preds = %call.i.noexc
  invoke void @_ZNSt7__cxx1112basic_stringIcSt11char_traitsIcESaIcEE12_M_constructIPKcEEvT_S8_St20forward_iterator_tag(ptr noundef nonnull align 8 dereferenceable(32) %ref.tmp, ptr noundef nonnull @.str, ptr noundef nonnull getelementptr inbounds ([34 x i8], ptr @.str, i64 0, i64 33))
          to label %invoke.cont unwind label %lpad.i

lpad.i:                                           ; preds = %.noexc
  %0 = landingpad { ptr, i32 }
          cleanup
  call void @_ZNSaIcED2Ev(ptr noundef nonnull align 1 dereferenceable(1) %ref.tmp) #7
  br label %ehcleanup

invoke.cont:                                      ; preds = %.noexc
  invoke void @_ZN7Iex_3_213throwErrnoExcERKNSt7__cxx1112basic_stringIcSt11char_traitsIcESaIcEEE(ptr noundef nonnull align 8 dereferenceable(32) %ref.tmp)
          to label %invoke.cont5 unwind label %lpad4

invoke.cont5:                                     ; preds = %invoke.cont
  call void @_ZNSt7__cxx1112basic_stringIcSt11char_traitsIcESaIcEED1Ev(ptr noundef nonnull align 8 dereferenceable(32) %ref.tmp) #7
  call void @_ZNSaIcED1Ev(ptr noundef nonnull align 1 dereferenceable(1) %ref.tmp3) #7
  br label %if.end

lpad:                                             ; preds = %call.i.noexc, %if.then
  %1 = landingpad { ptr, i32 }
          cleanup
  br label %ehcleanup

lpad4:                                            ; preds = %invoke.cont
  %2 = landingpad { ptr, i32 }
          cleanup
  call void @_ZNSt7__cxx1112basic_stringIcSt11char_traitsIcESaIcEED1Ev(ptr noundef nonnull align 8 dereferenceable(32) %ref.tmp) #7
  br label %ehcleanup

ehcleanup:                                        ; preds = %lpad, %lpad.i, %lpad4
  %.pn = phi { ptr, i32 } [ %2, %lpad4 ], [ %1, %lpad ], [ %0, %lpad.i ]
  call void @_ZNSaIcED1Ev(ptr noundef nonnull align 1 dereferenceable(1) %ref.tmp3) #7
  resume { ptr, i32 } %.pn

if.end:                                           ; preds = %invoke.cont5, %entry
  ret void
}